Certificate:
    Data:
        Version: 3 (0x2)
        Serial Number: 4096 (0x1000)
        Signature Algorithm: sha256WithRSAEncryption
        Issuer: C=US, ST=State, L=City, O=Organization, CN=RootCA
        Validity
            Not Before: Dec  9 19:51:11 2024 GMT
            Not After : Dec  9 19:51:11 2025 GMT
        Subject: C=US, ST=State, L=City, O=Organization, CN=user1
        Subject Public Key Info:
            Public Key Algorithm: rsaEncryption
                Public-Key: (2048 bit)
                Modulus:
                    00:ac:2d:b1:65:b2:05:07:32:46:5b:54:25:03:05:
                    af:c6:b0:0b:ce:e3:10:68:33:8e:9c:bd:e5:8c:6b:
                    28:33:2f:04:01:08:3e:f4:24:16:ce:21:cb:81:74:
                    44:5f:0d:95:8e:ac:bf:23:9f:1b:3b:77:01:ba:e8:
                    6d:3a:7e:21:fc:eb:2d:d6:fd:ee:a5:f8:b9:c4:14:
                    a4:ed:be:ea:48:ae:d1:79:74:ec:bd:07:f2:5c:c2:
                    36:a4:15:c7:f8:7e:74:81:72:45:a3:a7:06:30:75:
                    67:f4:ce:6a:6f:ca:7c:ec:a7:da:1a:28:f0:7e:41:
                    30:48:b1:cb:fd:db:ea:3b:3a:0d:ec:1c:51:c8:6c:
                    f6:53:c6:da:7b:7e:6f:d8:25:c5:0e:fe:27:c3:c2:
                    80:72:e5:f9:78:42:db:cf:9a:e3:0b:30:79:62:7b:
                    f8:8e:79:eb:66:86:7a:98:e5:d3:6c:68:aa:1e:61:
                    d4:e6:cf:dd:68:50:99:01:5e:32:1c:da:41:ad:7e:
                    94:10:c7:38:62:50:16:ce:b1:1d:2c:e9:15:a3:92:
                    fc:18:cf:28:7a:df:ce:b7:d4:62:14:86:c8:55:80:
                    f3:df:13:af:df:3c:04:72:8a:a2:6f:f7:ea:37:29:
                    d3:1e:0e:35:ad:1d:17:a7:28:64:c9:be:91:1c:b6:
                    1b:e3
                Exponent: 65537 (0x10001)
        X509v3 extensions:
            X509v3 Basic Constraints: 
                CA:FALSE
            Netscape Cert Type: 
                SSL Client, S/MIME
            Netscape Comment: 
                OpenSSL Generated Certificate
            X509v3 Subject Key Identifier: 
                79:8F:38:2D:6A:0F:9F:2E:E7:AA:09:78:75:48:68:9C:93:23:B1:90
            X509v3 Authority Key Identifier: 
                91:6E:EC:88:68:84:8B:23:84:EF:6E:41:6F:00:0D:97:91:31:AC:7E
            X509v3 Key Usage: critical
                Digital Signature, Non Repudiation, Key Encipherment
            X509v3 Extended Key Usage: 
                TLS Web Client Authentication, E-mail Protection
    Signature Algorithm: sha256WithRSAEncryption
    Signature Value:
        0c:34:a8:38:4f:17:62:98:0a:6c:25:e6:ad:d2:0c:84:17:09:
        17:d5:a3:32:37:23:35:45:13:55:43:c4:e8:e1:f0:7d:81:88:
        35:03:f9:f3:3a:25:6b:eb:c4:28:fc:47:c7:2a:a8:56:4f:f3:
        b7:a3:86:59:7a:39:37:be:f0:4b:56:46:49:36:47:97:41:83:
        51:8f:dd:e6:e2:e7:bc:a1:f3:d0:3a:39:e4:00:c3:14:73:22:
        43:a8:08:d5:7a:18:76:35:27:b3:5a:dc:8b:86:d3:4c:82:05:
        46:53:72:97:09:21:81:69:de:f5:2e:e2:b8:1b:ab:46:28:2e:
        8c:f9:ab:a7:53:6c:5b:fc:74:0c:71:87:6a:c1:7a:4e:a2:72:
        65:9a:6d:67:c3:d3:42:4e:b6:2d:5b:b8:ca:52:c5:05:97:92:
        5d:7e:15:51:b0:71:c2:6c:87:75:1d:44:2c:ba:d5:4b:1d:80:
        3c:d3:99:27:69:63:ad:a1:27:8b:b2:a1:8f:e5:c6:63:df:3a:
        4b:97:e9:96:f9:2a:55:0c:84:34:ba:cd:22:a5:db:49:37:21:
        d1:43:42:6e:60:3f:fc:10:ae:21:51:0c:9e:39:d8:5c:8d:86:
        9c:c2:ce:de:18:a1:49:f5:92:7c:20:39:66:61:98:72:f9:de:
        c2:01:ae:79:be:a1:f8:b4:51:25:dc:86:d9:87:e2:7e:21:ae:
        36:92:7a:6e:28:c5:b8:f9:9c:e1:3e:68:f3:b3:1f:6f:df:17:
        22:9f:7e:ba:17:e4:58:fe:03:2b:47:0c:5e:af:01:d3:ea:60:
        e6:22:e8:b2:78:50:74:38:ff:e5:4d:a0:fe:ed:8c:e1:60:d1:
        1f:05:5b:83:ea:b4:cf:35:f6:b1:f1:63:34:7d:db:e8:33:97:
        67:15:8d:d2:74:0d:bb:b2:26:cb:b7:4b:36:ba:7b:5e:ee:36:
        33:c5:18:8b:f0:ad:dc:9a:cc:ca:c9:0e:82:33:4f:dd:3c:11:
        51:79:8b:15:63:09:4f:fd:66:d1:e5:71:ce:af:31:54:72:64:
        b5:cc:13:b9:1d:c1:38:46:60:3c:cb:41:9e:89:aa:06:1f:e9:
        2c:88:db:34:f8:9c:02:ad:72:65:99:4c:12:be:7c:d2:d1:01:
        b3:50:2d:ad:a7:9c:7c:aa:02:62:8d:97:b0:cc:d4:25:61:ee:
        80:ff:8b:ac:df:8e:98:ba:85:f4:92:a8:9d:c0:57:65:a7:4f:
        d0:1a:0a:79:07:34:3d:8c:33:78:83:7c:28:37:9d:03:7e:44:
        b2:03:1a:f4:00:0c:d7:47:58:4b:a1:fb:d6:49:5b:7c:d8:d4:
        bb:8f:3b:d3:93:0b:ec:39
-----BEGIN CERTIFICATE-----
MIIE4jCCAsqgAwIBAgICEAAwDQYJKoZIhvcNAQELBQAwVDELMAkGA1UEBhMCVVMx
DjAMBgNVBAgMBVN0YXRlMQ0wCwYDVQQHDARDaXR5MRUwEwYDVQQKDAxPcmdhbml6
YXRpb24xDzANBgNVBAMMBlJvb3RDQTAeFw0yNDEyMDkxOTUxMTFaFw0yNTEyMDkx
OTUxMTFaMFMxCzAJBgNVBAYTAlVTMQ4wDAYDVQQIDAVTdGF0ZTENMAsGA1UEBwwE
Q2l0eTEVMBMGA1UECgwMT3JnYW5pemF0aW9uMQ4wDAYDVQQDDAV1c2VyMTCCASIw
DQYJKoZIhvcNAQEBBQADggEPADCCAQoCggEBAKwtsWWyBQcyRltUJQMFr8awC87j
EGgzjpy95YxrKDMvBAEIPvQkFs4hy4F0RF8NlY6svyOfGzt3AbrobTp+IfzrLdb9
7qX4ucQUpO2+6kiu0Xl07L0H8lzCNqQVx/h+dIFyRaOnBjB1Z/TOam/KfOyn2hoo
8H5BMEixy/3b6js6DewcUchs9lPG2nt+b9glxQ7+J8PCgHLl+XhC28+a4wsweWJ7
+I5562aGepjl02xoqh5h1ObP3WhQmQFeMhzaQa1+lBDHOGJQFs6xHSzpFaOS/BjP
KHrfzrfUYhSGyFWA898Tr988BHKKom/36jcp0x4ONa0dF6coZMm+kRy2G+MCAwEA
AaOBvjCBuzAJBgNVHRMEAjAAMBEGCWCGSAGG+EIBAQQEAwIFoDAsBglghkgBhvhC
AQ0EHxYdT3BlblNTTCBHZW5lcmF0ZWQgQ2VydGlmaWNhdGUwHQYDVR0OBBYEFHmP
OC1qD58u56oJeHVIaJyTI7GQMB8GA1UdIwQYMBaAFJFu7IhohIsjhO9uQW8ADZeR
Max+MA4GA1UdDwEB/wQEAwIF4DAdBgNVHSUEFjAUBggrBgEFBQcDAgYIKwYBBQUH
AwQwDQYJKoZIhvcNAQELBQADggIBAAw0qDhPF2KYCmwl5q3SDIQXCRfVozI3IzVF
E1VDxOjh8H2BiDUD+fM6JWvrxCj8R8cqqFZP87ejhll6OTe+8EtWRkk2R5dBg1GP
3ebi57yh89A6OeQAwxRzIkOoCNV6GHY1J7Na3IuG00yCBUZTcpcJIYFp3vUu4rgb
q0YoLoz5q6dTbFv8dAxxh2rBek6icmWabWfD00JOti1buMpSxQWXkl1+FVGwccJs
h3UdRCy61UsdgDzTmSdpY62hJ4uyoY/lxmPfOkuX6Zb5KlUMhDS6zSKl20k3IdFD
Qm5gP/wQriFRDJ452FyNhpzCzt4YoUn1knwgOWZhmHL53sIBrnm+ofi0USXchtmH
4n4hrjaSem4oxbj5nOE+aPOzH2/fFyKffroX5Fj+AytHDF6vAdPqYOYi6LJ4UHQ4
/+VNoP7tjOFg0R8FW4PqtM819rHxYzR92+gzl2cVjdJ0DbuyJsu3Sza6e17uNjPF
GIvwrdyazMrJDoIzT908EVF5ixVjCU/9ZtHlcc6vMVRyZLXME7kdwThGYDzLQZ6J
qgYf6SyI2zT4nAKtcmWZTBK+fNLRAbNQLa2nnHyqAmKNl7DM1CVh7oD/i6zfjpi6
hfSSqJ3AV2WnT9AaCnkHND2MM3iDfCg3nQN+RLIDGvQADNdHWEuh+9ZJW3zY1LuP
O9OTC+w5
-----END CERTIFICATE-----
