Certificate:
    Data:
        Version: 3 (0x2)
        Serial Number: 4097 (0x1001)
        Signature Algorithm: sha256WithRSAEncryption
        Issuer: C=US, ST=State, L=City, O=Organization, CN=RootCA
        Validity
            Not Before: Dec  9 19:51:45 2024 GMT
            Not After : Dec  9 19:51:45 2025 GMT
        Subject: C=US, ST=State, L=City, O=Organization, CN=user2
        Subject Public Key Info:
            Public Key Algorithm: rsaEncryption
                Public-Key: (2048 bit)
                Modulus:
                    00:e8:d8:f5:79:df:39:3c:52:bd:54:29:c2:00:c4:
                    1b:7b:1d:87:56:c7:d8:84:67:ab:46:97:d4:4b:31:
                    9f:33:fd:c2:72:b0:26:66:d9:af:2d:92:c4:e9:c0:
                    e7:8d:bc:ae:0d:99:08:bd:46:60:cc:0c:bc:45:e3:
                    8a:8d:c9:19:65:7e:45:06:35:f1:fc:65:97:95:d2:
                    a4:82:18:ac:fd:b9:a2:84:7b:e9:97:43:9b:a0:c2:
                    16:ae:c7:c6:9b:bb:3c:72:39:6a:6f:41:15:cc:83:
                    d0:36:c6:95:41:f9:57:69:3e:58:3d:f9:e3:78:e9:
                    c0:37:15:b8:b8:3c:3a:a5:78:cd:63:e9:49:40:2c:
                    d5:f0:b8:c2:e5:63:3c:bf:e6:c2:53:ba:ca:1c:8f:
                    ba:c3:cf:c7:99:85:7a:46:88:9a:12:c1:f1:46:d7:
                    83:54:80:4f:60:40:42:5b:ba:be:82:56:9a:42:e5:
                    43:a1:d8:be:9f:1a:95:60:c5:81:ca:2c:59:bd:35:
                    a1:39:e3:50:fc:f3:3e:83:3d:39:91:87:3a:69:7c:
                    4a:49:2c:3b:b4:d3:02:7b:b5:71:fb:28:d0:4f:ba:
                    1b:bf:9e:7a:fd:73:8a:86:a4:1f:7e:5f:05:87:23:
                    8d:2f:e3:8e:08:1c:cc:6a:5d:14:8c:be:98:7f:65:
                    08:7f
                Exponent: 65537 (0x10001)
        X509v3 extensions:
            X509v3 Basic Constraints: 
                CA:FALSE
            Netscape Cert Type: 
                SSL Client, S/MIME
            Netscape Comment: 
                OpenSSL Generated Certificate
            X509v3 Subject Key Identifier: 
                A1:DA:E8:6E:99:C5:76:C4:0A:B6:C7:79:CE:20:01:C8:9A:44:66:82
            X509v3 Authority Key Identifier: 
                91:6E:EC:88:68:84:8B:23:84:EF:6E:41:6F:00:0D:97:91:31:AC:7E
            X509v3 Key Usage: critical
                Digital Signature, Non Repudiation, Key Encipherment
            X509v3 Extended Key Usage: 
                TLS Web Client Authentication, E-mail Protection
    Signature Algorithm: sha256WithRSAEncryption
    Signature Value:
        82:4f:1b:62:f2:9a:c5:8d:8c:fc:27:56:76:ea:7e:5b:7c:6e:
        de:a2:4b:c8:73:69:a4:10:67:8e:8c:a2:6b:1b:17:24:1f:34:
        65:95:7d:4d:7c:25:e5:66:df:23:4b:83:79:5a:f5:52:76:13:
        04:41:bc:eb:1d:a3:a9:8e:c0:ef:14:22:bb:0b:e6:6b:b8:4c:
        8a:f2:44:5f:0e:9b:cf:7b:95:29:97:2b:f4:ba:8a:88:2d:7b:
        b8:31:82:79:2c:7a:c7:72:48:41:d1:01:11:68:01:c3:9b:ea:
        39:4d:6a:c8:d4:22:92:79:41:b8:05:77:b3:a8:ea:93:bd:0e:
        8d:87:b0:fc:20:c1:db:0d:e1:f4:1e:51:ad:77:5e:fa:fb:cf:
        14:5e:8c:20:f8:b4:42:65:c2:d2:5c:97:b5:ad:3e:23:29:5d:
        d8:c5:cd:ff:4b:2a:7d:17:74:32:df:7a:20:a1:5e:90:7b:42:
        5f:c3:40:ed:b5:f7:7d:e3:70:75:28:9d:db:70:2b:06:6d:1e:
        6c:44:9b:a4:ba:56:57:20:01:2e:86:0a:78:3b:07:b6:77:fb:
        49:fa:6a:b4:ad:82:83:ea:0d:7f:9f:ab:cf:fd:89:2e:28:ab:
        ff:b9:d0:7b:30:1f:e2:ec:52:af:62:b5:d7:9a:f6:90:81:e2:
        1f:cf:ea:f4:6c:1f:97:94:4f:15:43:5b:d2:d4:4e:1d:e6:7f:
        18:64:47:e4:bd:93:64:07:de:3c:26:73:0b:9c:db:85:0f:18:
        1f:c4:9e:68:99:24:43:7d:10:d6:f7:89:de:d2:ca:3c:fc:3c:
        6a:da:ba:85:4b:ba:5f:fe:b5:fa:7b:ee:d6:cc:e6:6f:40:b2:
        c9:43:ed:27:29:38:c9:79:7f:5f:28:b1:04:f5:ed:47:a9:24:
        aa:7c:82:28:de:bb:ea:00:9f:79:88:b3:5a:bf:78:e6:b8:70:
        50:c9:8e:19:26:ee:fc:e2:14:78:f4:cd:a0:72:90:78:d7:23:
        83:a0:dc:7e:37:65:c2:6f:67:86:af:e2:99:de:a3:2f:a9:fb:
        ef:07:2d:60:a5:6d:f8:77:23:36:b0:a2:b0:bf:ca:80:47:f3:
        7d:44:bb:1e:be:e0:7a:76:37:93:d3:cc:e2:5c:11:91:c5:b2:
        60:de:01:aa:37:1b:86:8c:2a:c2:bc:e4:0c:0e:7c:e8:3e:b3:
        08:7d:ed:08:d7:03:7f:03:8e:26:64:3a:47:4b:ce:6f:a4:e2:
        8a:bc:93:38:f0:86:1e:ab:56:22:3e:2f:49:08:67:cf:6c:ab:
        36:ae:86:41:cd:38:69:12:c5:96:f1:cf:47:df:47:83:88:24:
        3d:99:cb:40:d1:e8:ea:19
-----BEGIN CERTIFICATE-----
MIIE4jCCAsqgAwIBAgICEAEwDQYJKoZIhvcNAQELBQAwVDELMAkGA1UEBhMCVVMx
DjAMBgNVBAgMBVN0YXRlMQ0wCwYDVQQHDARDaXR5MRUwEwYDVQQKDAxPcmdhbml6
YXRpb24xDzANBgNVBAMMBlJvb3RDQTAeFw0yNDEyMDkxOTUxNDVaFw0yNTEyMDkx
OTUxNDVaMFMxCzAJBgNVBAYTAlVTMQ4wDAYDVQQIDAVTdGF0ZTENMAsGA1UEBwwE
Q2l0eTEVMBMGA1UECgwMT3JnYW5pemF0aW9uMQ4wDAYDVQQDDAV1c2VyMjCCASIw
DQYJKoZIhvcNAQEBBQADggEPADCCAQoCggEBAOjY9XnfOTxSvVQpwgDEG3sdh1bH
2IRnq0aX1EsxnzP9wnKwJmbZry2SxOnA5428rg2ZCL1GYMwMvEXjio3JGWV+RQY1
8fxll5XSpIIYrP25ooR76ZdDm6DCFq7Hxpu7PHI5am9BFcyD0DbGlUH5V2k+WD35
43jpwDcVuLg8OqV4zWPpSUAs1fC4wuVjPL/mwlO6yhyPusPPx5mFekaImhLB8UbX
g1SAT2BAQlu6voJWmkLlQ6HYvp8alWDFgcosWb01oTnjUPzzPoM9OZGHOml8Skks
O7TTAnu1cfso0E+6G7+eev1zioakH35fBYcjjS/jjggczGpdFIy+mH9lCH8CAwEA
AaOBvjCBuzAJBgNVHRMEAjAAMBEGCWCGSAGG+EIBAQQEAwIFoDAsBglghkgBhvhC
AQ0EHxYdT3BlblNTTCBHZW5lcmF0ZWQgQ2VydGlmaWNhdGUwHQYDVR0OBBYEFKHa
6G6ZxXbECrbHec4gAciaRGaCMB8GA1UdIwQYMBaAFJFu7IhohIsjhO9uQW8ADZeR
Max+MA4GA1UdDwEB/wQEAwIF4DAdBgNVHSUEFjAUBggrBgEFBQcDAgYIKwYBBQUH
AwQwDQYJKoZIhvcNAQELBQADggIBAIJPG2LymsWNjPwnVnbqflt8bt6iS8hzaaQQ
Z46MomsbFyQfNGWVfU18JeVm3yNLg3la9VJ2EwRBvOsdo6mOwO8UIrsL5mu4TIry
RF8Om897lSmXK/S6iogte7gxgnksesdySEHRARFoAcOb6jlNasjUIpJ5QbgFd7Oo
6pO9Do2HsPwgwdsN4fQeUa13Xvr7zxRejCD4tEJlwtJcl7WtPiMpXdjFzf9LKn0X
dDLfeiChXpB7Ql/DQO21933jcHUondtwKwZtHmxEm6S6VlcgAS6GCng7B7Z3+0n6
arStgoPqDX+fq8/9iS4oq/+50HswH+LsUq9itdea9pCB4h/P6vRsH5eUTxVDW9LU
Th3mfxhkR+S9k2QH3jwmcwuc24UPGB/EnmiZJEN9ENb3id7Syjz8PGrauoVLul/+
tfp77tbM5m9AsslD7ScpOMl5f18osQT17UepJKp8gijeu+oAn3mIs1q/eOa4cFDJ
jhkm7vziFHj0zaBykHjXI4Og3H43ZcJvZ4av4pneoy+p++8HLWClbfh3IzaworC/
yoBH831Eux6+4Hp2N5PTzOJcEZHFsmDeAao3G4aMKsK85AwOfOg+swh97QjXA38D
jiZkOkdLzm+k4oq8kzjwhh6rViI+L0kIZ89sqzauhkHNOGkSxZbxz0ffR4OIJD2Z
y0DR6OoZ
-----END CERTIFICATE-----
